; Function Attrs: mustprogress uwtable
define dso_local void @_ZN4enki13TaskScheduler16AddTaskSetToPipeEPNS_8ITaskSetE(ptr noundef nonnull align 8 dereferenceable(220) %0, ptr noundef %1) local_unnamed_addr #0 align 2 {
  tail call void @_ZN4enki13TaskScheduler16InitDependenciesEPNS_12ICompletableE(ptr noundef nonnull align 8 dereferenceable(220) %0, ptr noundef %1)
  %3 = getelementptr inbounds nuw i8, ptr %1, i64 12
  store atomic i32 2, ptr %3 monotonic, align 4
  %4 = tail call align 4 ptr @llvm.threadlocal.address.p0(ptr align 4 @_ZL13gtl_threadNum)
  %5 = load i32, ptr %4, align 4, !tbaa !27
  tail call void @_ZN4enki13TaskScheduler19AddTaskSetToPipeIntEPNS_8ITaskSetEj(ptr noundef nonnull align 8 dereferenceable(220) %0, ptr noundef %1, i32 noundef %5)
  ret void
}